; Function Attrs: inlinehint nounwind uwtable
define internal fastcc void @Vec_VecExpand(ptr noundef captures(none) %0, i32 noundef %1) unnamed_addr #12 {
  %3 = getelementptr inbounds nuw i8, ptr %0, i64 4
  %4 = load i32, ptr %3, align 4, !tbaa !45
  %5 = add i32 %1, 1
  %.not.not = icmp sgt i32 %4, %1
  br i1 %.not.not, label %25, label %6

6:                                                ; preds = %2
  %7 = load i32, ptr %0, align 8, !tbaa !42
  %.not.i.not = icmp sgt i32 %7, %1
  br i1 %.not.i.not, label %Vec_PtrGrow.exit, label %8

8:                                                ; preds = %6
  %9 = getelementptr inbounds nuw i8, ptr %0, i64 8
  %10 = load ptr, ptr %9, align 8, !tbaa !24
  %.not9.i = icmp eq ptr %10, null
  %11 = sext i32 %5 to i64
  %12 = shl nsw i64 %11, 3
  br i1 %.not9.i, label %15, label %13

13:                                               ; preds = %8
  %14 = tail call ptr @realloc(ptr noundef nonnull %10, i64 noundef %12) #27
  %.pre.pre = load i32, ptr %3, align 4, !tbaa !45
  br label %17

15:                                               ; preds = %8
  %16 = tail call noalias ptr @malloc(i64 noundef %12) #28
  br label %17

17:                                               ; preds = %15, %13
  %.pre = phi i32 [ %.pre.pre, %13 ], [ %4, %15 ]
  %18 = phi ptr [ %14, %13 ], [ %16, %15 ]
  store ptr %18, ptr %9, align 8, !tbaa !24
  store i32 %5, ptr %0, align 8, !tbaa !42
  br label %Vec_PtrGrow.exit

Vec_PtrGrow.exit:                                 ; preds = %6, %17
  %19 = phi i32 [ %4, %6 ], [ %.pre, %17 ]
  %.not12 = icmp sgt i32 %19, %1
  br i1 %.not12, label %._crit_edge, label %.lr.ph

.lr.ph:                                           ; preds = %Vec_PtrGrow.exit
  %20 = getelementptr inbounds nuw i8, ptr %0, i64 8
  %21 = sext i32 %19 to i64
  br label %22

22:                                               ; preds = %.lr.ph, %22
  %indvars.iv = phi i64 [ %21, %.lr.ph ], [ %indvars.iv.next, %22 ]
  %calloc = tail call dereferenceable_or_null(16) ptr @calloc(i64 1, i64 16)
  %23 = load ptr, ptr %20, align 8, !tbaa !47
  %24 = getelementptr inbounds ptr, ptr %23, i64 %indvars.iv
  store ptr %calloc, ptr %24, align 8, !tbaa !25
  %indvars.iv.next = add nsw i64 %indvars.iv, 1
  %lftr.wideiv = trunc i64 %indvars.iv.next to i32
  %exitcond.not = icmp eq i32 %5, %lftr.wideiv
  br i1 %exitcond.not, label %._crit_edge, label %22, !llvm.loop !48

._crit_edge:                                      ; preds = %22, %Vec_PtrGrow.exit
  store i32 %5, ptr %3, align 4, !tbaa !45
  br label %25

25:                                               ; preds = %2, %._crit_edge
  ret void
}